; Function Attrs: mustprogress nofree norecurse nosync nounwind null_pointer_is_valid sspstrong willreturn memory(write, argmem: read, inaccessiblemem: none) uwtable
define hidden void @key_exchange_context_set_mac_a(ptr noundef readonly captures(address_is_null) %0) local_unnamed_addr #0 {
  %.not = icmp eq ptr %0, null
  br i1 %.not, label %4, label %2

2:                                                ; preds = %1
  %3 = load i64, ptr %0, align 1
  store i64 %3, ptr getelementptr inbounds nuw (i8, ptr @key_exchange_context, i64 16), align 8
  br label %4

4:                                                ; preds = %2, %1
  ret void
}